(lp0
S'airfield'
p1
aS'airplane_cabin'
p2
aS'airport_terminal'
p3
aS'alcove'
p4
aS'alley'
p5
aS'amphitheater'
p6
aS'amusement_arcade'
p7
aS'amusement_park'
p8
aS'apartment_building'
p9
aS'aquarium'
p10
aS'aqueduct'
p11
aS'arcade'
p12
aS'arch'
p13
aS'archaelogical_excavation'
p14
aS'archive'
p15
aS'arena'
p16
aS'arena'
p17
aS'arena'
p18
aS'army_base'
p19
aS'art_gallery'
p20
aS'art_school'
p21
aS'art_studio'
p22
aS'artists_loft'
p23
aS'assembly_line'
p24
aS'athletic_field'
p25
aS'atrium'
p26
aS'attic'
p27
aS'auditorium'
p28
aS'auto_factory'
p29
aS'auto_showroom'
p30
aS'badlands'
p31
aS'bakery'
p32
aS'balcony'
p33
aS'balcony'
p34
aS'ball_pit'
p35
aS'ballroom'
p36
aS'bamboo_forest'
p37
aS'bank_vault'
p38
aS'banquet_hall'
p39
aS'bar'
p40
aS'barn'
p41
aS'barndoor'
p42
aS'baseball_field'
p43
aS'basement'
p44
aS'basketball_court'
p45
aS'bathroom'
p46
aS'bazaar'
p47
aS'bazaar'
p48
aS'beach'
p49
aS'beach_house'
p50
aS'beauty_salon'
p51
aS'bedchamber'
p52
aS'bedroom'
p53
aS'beer_garden'
p54
aS'beer_hall'
p55
aS'berth'
p56
aS'biology_laboratory'
p57
aS'boardwalk'
p58
aS'boat_deck'
p59
aS'boathouse'
p60
aS'bookstore'
p61
aS'booth'
p62
aS'botanical_garden'
p63
aS'bow_window'
p64
aS'bowling_alley'
p65
aS'boxing_ring'
p66
aS'bridge'
p67
aS'building_facade'
p68
aS'bullring'
p69
aS'burial_chamber'
p70
aS'bus_interior'
p71
aS'bus_station'
p72
aS'butchers_shop'
p73
aS'butte'
p74
aS'cabin'
p75
aS'cafeteria'
p76
aS'campsite'
p77
aS'campus'
p78
aS'canal'
p79
aS'canal'
p80
aS'candy_store'
p81
aS'canyon'
p82
aS'car_interior'
p83
aS'carrousel'
p84
aS'castle'
p85
aS'catacomb'
p86
aS'cemetery'
p87
aS'chalet'
p88
aS'chemistry_lab'
p89
aS'childs_room'
p90
aS'church'
p91
aS'church'
p92
aS'classroom'
p93
aS'clean_room'
p94
aS'cliff'
p95
aS'closet'
p96
aS'clothing_store'
p97
aS'coast'
p98
aS'cockpit'
p99
aS'coffee_shop'
p100
aS'computer_room'
p101
aS'conference_center'
p102
aS'conference_room'
p103
aS'construction_site'
p104
aS'corn_field'
p105
aS'corral'
p106
aS'corridor'
p107
aS'cottage'
p108
aS'courthouse'
p109
aS'courtyard'
p110
aS'creek'
p111
aS'crevasse'
p112
aS'crosswalk'
p113
aS'dam'
p114
aS'delicatessen'
p115
aS'department_store'
p116
aS'desert'
p117
aS'desert'
p118
aS'desert_road'
p119
aS'diner'
p120
aS'dining_hall'
p121
aS'dining_room'
p122
aS'discotheque'
p123
aS'doorway'
p124
aS'dorm_room'
p125
aS'downtown'
p126
aS'dressing_room'
p127
aS'driveway'
p128
aS'drugstore'
p129
aS'elevator'
p130
aS'elevator_lobby'
p131
aS'elevator_shaft'
p132
aS'embassy'
p133
aS'engine_room'
p134
aS'entrance_hall'
p135
aS'escalator'
p136
aS'excavation'
p137
aS'fabric_store'
p138
aS'farm'
p139
aS'fastfood_restaurant'
p140
aS'field'
p141
aS'field'
p142
aS'field_road'
p143
aS'fire_escape'
p144
aS'fire_station'
p145
aS'fishpond'
p146
aS'flea_market'
p147
aS'florist_shop'
p148
aS'food_court'
p149
aS'football_field'
p150
aS'forest'
p151
aS'forest_path'
p152
aS'forest_road'
p153
aS'formal_garden'
p154
aS'fountain'
p155
aS'galley'
p156
aS'garage'
p157
aS'garage'
p158
aS'gas_station'
p159
aS'gazebo'
p160
aS'general_store'
p161
aS'general_store'
p162
aS'gift_shop'
p163
aS'glacier'
p164
aS'golf_course'
p165
aS'greenhouse'
p166
aS'greenhouse'
p167
aS'grotto'
p168
aS'gymnasium'
p169
aS'hangar'
p170
aS'hangar'
p171
aS'harbor'
p172
aS'hardware_store'
p173
aS'hayfield'
p174
aS'heliport'
p175
aS'highway'
p176
aS'home_office'
p177
aS'home_theater'
p178
aS'hospital'
p179
aS'hospital_room'
p180
aS'hot_spring'
p181
aS'hotel'
p182
aS'hotel_room'
p183
aS'house'
p184
aS'hunting_lodge'
p185
aS'ice_cream_parlor'
p186
aS'ice_floe'
p187
aS'ice_shelf'
p188
aS'ice_skating_rink'
p189
aS'ice_skating_rink'
p190
aS'iceberg'
p191
aS'igloo'
p192
aS'industrial_area'
p193
aS'inn'
p194
aS'islet'
p195
aS'jacuzzi'
p196
aS'jail_cell'
p197
aS'japanese_garden'
p198
aS'jewelry_shop'
p199
aS'junkyard'
p200
aS'kasbah'
p201
aS'kennel'
p202
aS'kindergarden_classroom'
p203
aS'kitchen'
p204
aS'lagoon'
p205
aS'lake'
p206
aS'landfill'
p207
aS'landing_deck'
p208
aS'laundromat'
p209
aS'lawn'
p210
aS'lecture_room'
p211
aS'legislative_chamber'
p212
aS'library'
p213
aS'library'
p214
aS'lighthouse'
p215
aS'living_room'
p216
aS'loading_dock'
p217
aS'lobby'
p218
aS'lock_chamber'
p219
aS'locker_room'
p220
aS'mansion'
p221
aS'manufactured_home'
p222
aS'market'
p223
aS'market'
p224
aS'marsh'
p225
aS'martial_arts_gym'
p226
aS'mausoleum'
p227
aS'medina'
p228
aS'mezzanine'
p229
aS'moat'
p230
aS'mosque'
p231
aS'motel'
p232
aS'mountain'
p233
aS'mountain_path'
p234
aS'mountain_snowy'
p235
aS'movie_theater'
p236
aS'museum'
p237
aS'museum'
p238
aS'music_studio'
p239
aS'natural_history_museum'
p240
aS'nursery'
p241
aS'nursing_home'
p242
aS'oast_house'
p243
aS'ocean'
p244
aS'office'
p245
aS'office_building'
p246
aS'office_cubicles'
p247
aS'oilrig'
p248
aS'operating_room'
p249
aS'orchard'
p250
aS'orchestra_pit'
p251
aS'pagoda'
p252
aS'palace'
p253
aS'pantry'
p254
aS'park'
p255
aS'parking_garage'
p256
aS'parking_garage'
p257
aS'parking_lot'
p258
aS'pasture'
p259
aS'patio'
p260
aS'pavilion'
p261
aS'pet_shop'
p262
aS'pharmacy'
p263
aS'phone_booth'
p264
aS'physics_laboratory'
p265
aS'picnic_area'
p266
aS'pier'
p267
aS'pizzeria'
p268
aS'playground'
p269
aS'playroom'
p270
aS'plaza'
p271
aS'pond'
p272
aS'porch'
p273
aS'promenade'
p274
aS'pub'
p275
aS'racecourse'
p276
aS'raceway'
p277
aS'raft'
p278
aS'railroad_track'
p279
aS'rainforest'
p280
aS'reception'
p281
aS'recreation_room'
p282
aS'repair_shop'
p283
aS'residential_neighborhood'
p284
aS'restaurant'
p285
aS'restaurant_kitchen'
p286
aS'restaurant_patio'
p287
aS'rice_paddy'
p288
aS'river'
p289
aS'rock_arch'
p290
aS'roof_garden'
p291
aS'rope_bridge'
p292
aS'ruin'
p293
aS'runway'
p294
aS'sandbox'
p295
aS'sauna'
p296
aS'schoolhouse'
p297
aS'science_museum'
p298
aS'server_room'
p299
aS'shed'
p300
aS'shoe_shop'
p301
aS'shopfront'
p302
aS'shopping_mall'
p303
aS'shower'
p304
aS'ski_resort'
p305
aS'ski_slope'
p306
aS'sky'
p307
aS'skyscraper'
p308
aS'slum'
p309
aS'snowfield'
p310
aS'soccer_field'
p311
aS'stable'
p312
aS'stadium'
p313
aS'stadium'
p314
aS'stadium'
p315
aS'stage'
p316
aS'stage'
p317
aS'staircase'
p318
aS'storage_room'
p319
aS'street'
p320
aS'subway_station'
p321
aS'supermarket'
p322
aS'sushi_bar'
p323
aS'swamp'
p324
aS'swimming_hole'
p325
aS'swimming_pool'
p326
aS'swimming_pool'
p327
aS'synagogue'
p328
aS'television_room'
p329
aS'television_studio'
p330
aS'temple'
p331
aS'throne_room'
p332
aS'ticket_booth'
p333
aS'topiary_garden'
p334
aS'tower'
p335
aS'toyshop'
p336
aS'train_interior'
p337
aS'train_station'
p338
aS'tree_farm'
p339
aS'tree_house'
p340
aS'trench'
p341
aS'tundra'
p342
aS'underwater'
p343
aS'utility_room'
p344
aS'valley'
p345
aS'vegetable_garden'
p346
aS'veterinarians_office'
p347
aS'viaduct'
p348
aS'village'
p349
aS'vineyard'
p350
aS'volcano'
p351
aS'volleyball_court'
p352
aS'waiting_room'
p353
aS'water_park'
p354
aS'water_tower'
p355
aS'waterfall'
p356
aS'watering_hole'
p357
aS'wave'
p358
aS'wet_bar'
p359
aS'wheat_field'
p360
aS'wind_farm'
p361
aS'windmill'
p362
aS'yard'
p363
aS'youth_hostel'
p364
aS'zen_garden'
p365
a.